target datalayout = "e-m:e-p270:32:32-p271:32:32-p272:64:64-i64:64-i128:128-f80:128-n8:16:32:64-S128"
target triple = "x86_64-pc-linux-gnu"

%struct.SDL_DriverXboxOne_Context = type { ptr, i16, i16, i32, i64, i8, i64, i8, i8, i8, i8, i8, i8, i8, i8, i8, i8, i8, i32, i64, i8, [64 x i8], ptr, i32 }

@__const.SetHomeLED.led_packet = private unnamed_addr constant [7 x i8] c"\0A \00\03\00\00\00", align 1

; Function Attrs: nounwind uwtable
define internal void @SetHomeLED(ptr noundef %0, i32 noundef %1) #0 {
  %3 = alloca ptr, align 8
  %4 = alloca i32, align 4
  %5 = alloca [7 x i8], align 1
  store ptr %0, ptr %3, align 8
  store i32 %1, ptr %4, align 4
  call void @llvm.lifetime.start.p0(i64 7, ptr %5) #6
  call void @llvm.memcpy.p0.p0.i64(ptr align 1 %5, ptr align 1 @__const.SetHomeLED.led_packet, i64 7, i1 false)
  %6 = load i32, ptr %4, align 4
  %7 = icmp sgt i32 %6, 0
  br i1 %7, label %8, label %13

8:                                                ; preds = %2
  %9 = getelementptr inbounds [7 x i8], ptr %5, i64 0, i64 5
  store i8 1, ptr %9, align 1
  %10 = load i32, ptr %4, align 4
  %11 = trunc i32 %10 to i8
  %12 = getelementptr inbounds [7 x i8], ptr %5, i64 0, i64 6
  store i8 %11, ptr %12, align 1
  br label %13

13:                                               ; preds = %8, %2
  %14 = load ptr, ptr %3, align 8
  %15 = getelementptr inbounds nuw %struct.SDL_DriverXboxOne_Context, ptr %14, i32 0, i32 0
  %16 = load ptr, ptr %15, align 8
  %17 = getelementptr inbounds [7 x i8], ptr %5, i64 0, i64 0
  %18 = call i32 @SDL_HIDAPI_SendRumble(ptr noundef %16, ptr noundef %17, i32 noundef 7)
  call void @llvm.lifetime.end.p0(i64 7, ptr %5) #6
  ret void
}

; Function Attrs: nounwind uwtable
define internal i32 @GetHomeLEDBrightness(ptr noundef %0) #0 {
  %2 = alloca ptr, align 8
  %3 = alloca i32, align 4
  %4 = alloca i32, align 4
  store ptr %0, ptr %2, align 8
  call void @llvm.lifetime.start.p0(i64 4, ptr %3) #6
  store i32 50, ptr %3, align 4
  call void @llvm.lifetime.start.p0(i64 4, ptr %4) #6
  store i32 20, ptr %4, align 4
  %5 = load ptr, ptr %2, align 8
  %6 = icmp ne ptr %5, null
  br i1 %6, label %7, label %27

7:                                                ; preds = %1
  %8 = load ptr, ptr %2, align 8
  %9 = load i8, ptr %8, align 1
  %10 = sext i8 %9 to i32
  %11 = icmp ne i32 %10, 0
  br i1 %11, label %12, label %27

12:                                               ; preds = %7
  %13 = load ptr, ptr %2, align 8
  %14 = call ptr @SDL_strchr_REAL(ptr noundef %13, i32 noundef 46)
  %15 = icmp ne ptr %14, null
  br i1 %15, label %16, label %21

16:                                               ; preds = %12
  %17 = load ptr, ptr %2, align 8
  %18 = call double @SDL_atof_REAL(ptr noundef %17)
  %19 = fmul double 5.000000e+01, %18
  %20 = fptosi double %19 to i32
  store i32 %20, ptr %4, align 4
  br label %26

21:                                               ; preds = %12
  %22 = load ptr, ptr %2, align 8
  %23 = call zeroext i1 @SDL_GetStringBoolean(ptr noundef %22, i1 noundef zeroext true)
  br i1 %23, label %25, label %24

24:                                               ; preds = %21
  store i32 0, ptr %4, align 4
  br label %25

25:                                               ; preds = %24, %21
  br label %26

26:                                               ; preds = %25, %16
  br label %27

27:                                               ; preds = %26, %7, %1
  %28 = load i32, ptr %4, align 4
  call void @llvm.lifetime.end.p0(i64 4, ptr %4) #6
  call void @llvm.lifetime.end.p0(i64 4, ptr %3) #6
  ret i32 %28
}

; Function Attrs: nounwind uwtable
define internal void @SDL_HomeLEDHintChanged(ptr noundef %0, ptr noundef %1, ptr noundef %2, ptr noundef %3) #0 {
  %5 = alloca ptr, align 8
  %6 = alloca ptr, align 8
  %7 = alloca ptr, align 8
  %8 = alloca ptr, align 8
  %9 = alloca ptr, align 8
  store ptr %0, ptr %5, align 8
  store ptr %1, ptr %6, align 8
  store ptr %2, ptr %7, align 8
  store ptr %3, ptr %8, align 8
  call void @llvm.lifetime.start.p0(i64 8, ptr %9) #6
  %10 = load ptr, ptr %5, align 8
  store ptr %10, ptr %9, align 8
  %11 = load ptr, ptr %8, align 8
  %12 = icmp ne ptr %11, null
  br i1 %12, label %13, label %22

13:                                               ; preds = %4
  %14 = load ptr, ptr %8, align 8
  %15 = load i8, ptr %14, align 1
  %16 = sext i8 %15 to i32
  %17 = icmp ne i32 %16, 0
  br i1 %17, label %18, label %22

18:                                               ; preds = %13
  %19 = load ptr, ptr %9, align 8
  %20 = load ptr, ptr %8, align 8
  %21 = call i32 @GetHomeLEDBrightness(ptr noundef %20)
  call void @SetHomeLED(ptr noundef %19, i32 noundef %21)
  br label %22

22:                                               ; preds = %18, %13, %4
  call void @llvm.lifetime.end.p0(i64 8, ptr %9) #6
  ret void
}