; Function Attrs: nounwind uwtable
define internal void @SDL_HomeLEDHintChanged(ptr noundef readonly captures(none) %0, ptr readnone captures(none) %1, ptr readnone captures(none) %2, ptr noundef %3) #0 {
  %5 = alloca [7 x i8], align 1
  %.not = icmp eq ptr %3, null
  br i1 %.not, label %22, label %6

6:                                                ; preds = %4
  %7 = load i8, ptr %3, align 1
  %.not5 = icmp eq i8 %7, 0
  br i1 %.not5, label %22, label %8

8:                                                ; preds = %6
  %9 = tail call ptr @SDL_strchr_REAL(ptr noundef nonnull %3, i32 noundef 46) #9
  %.not7.i = icmp eq ptr %9, null
  br i1 %.not7.i, label %10, label %GetHomeLEDBrightness.exit

10:                                               ; preds = %8
  %11 = tail call zeroext i1 @SDL_GetStringBoolean(ptr noundef nonnull %3, i1 noundef zeroext true) #9
  call void @llvm.lifetime.start.p0(i64 7, ptr nonnull %5) #9
  br i1 %11, label %GetHomeLEDBrightness.exit.thread, label %GetHomeLEDBrightness.exit.thread8

GetHomeLEDBrightness.exit.thread8:                ; preds = %10
  call void @llvm.memcpy.p0.p0.i64(ptr noundef nonnull align 1 dereferenceable(7) %5, ptr noundef nonnull align 1 dereferenceable(7) @__const.SetHomeLED.led_packet, i64 7, i1 false)
  br label %SetHomeLED.exit

GetHomeLEDBrightness.exit.thread:                 ; preds = %10
  call void @llvm.memcpy.p0.p0.i64(ptr noundef nonnull align 1 dereferenceable(7) %5, ptr noundef nonnull align 1 dereferenceable(7) @__const.SetHomeLED.led_packet, i64 5, i1 false)
  br label %16

GetHomeLEDBrightness.exit:                        ; preds = %8
  %12 = tail call double @SDL_atof_REAL(ptr noundef nonnull %3) #9
  %13 = fmul double %12, 5.000000e+01
  %14 = fptosi double %13 to i32
  call void @llvm.lifetime.start.p0(i64 7, ptr nonnull %5) #9
  call void @llvm.memcpy.p0.p0.i64(ptr noundef nonnull align 1 dereferenceable(7) %5, ptr noundef nonnull align 1 dereferenceable(7) @__const.SetHomeLED.led_packet, i64 7, i1 false)
  %15 = icmp sgt i32 %14, 0
  br i1 %15, label %16, label %SetHomeLED.exit

16:                                               ; preds = %GetHomeLEDBrightness.exit.thread, %GetHomeLEDBrightness.exit
  %.0.i7 = phi i32 [ 20, %GetHomeLEDBrightness.exit.thread ], [ %14, %GetHomeLEDBrightness.exit ]
  %17 = getelementptr inbounds nuw i8, ptr %5, i64 5
  store i8 1, ptr %17, align 1
  %18 = trunc i32 %.0.i7 to i8
  %19 = getelementptr inbounds nuw i8, ptr %5, i64 6
  store i8 %18, ptr %19, align 1
  br label %SetHomeLED.exit

SetHomeLED.exit:                                  ; preds = %GetHomeLEDBrightness.exit.thread8, %GetHomeLEDBrightness.exit, %16
  %20 = load ptr, ptr %0, align 8
  %21 = call i32 @SDL_HIDAPI_SendRumble(ptr noundef %20, ptr noundef nonnull %5, i32 noundef 7) #9
  call void @llvm.lifetime.end.p0(i64 7, ptr nonnull %5) #9
  br label %22

22:                                               ; preds = %SetHomeLED.exit, %6, %4
  ret void
}